; ModuleID = 'source-C-CXX/46/3798.c'
source_filename = "source-C-CXX/46/3798.c"
target datalayout = "e-m:e-p270:32:32-p271:32:32-p272:64:64-i64:64-f80:128-n8:16:32:64-S128"
target triple = "x86_64-pc-linux-gnu"

@.str = private unnamed_addr constant [3 x i8] c"%d\00", align 1
@.str.1 = private unnamed_addr constant [4 x i8] c" %d\00", align 1

; Function Attrs: nofree nounwind sspstrong uwtable
define dso_local i32 @main() local_unnamed_addr #0 {
  %1 = alloca [101 x i32], align 16
  %2 = alloca [101 x i32], align 16
  %3 = alloca i32, align 4
  %4 = bitcast [101 x i32]* %1 to i8*
  call void @llvm.lifetime.start.p0i8(i64 404, i8* nonnull %4) #4
  call void @llvm.memset.p0i8.i64(i8* noundef nonnull align 16 dereferenceable(404) %4, i8 0, i64 404, i1 false)
  %5 = bitcast [101 x i32]* %2 to i8*
  call void @llvm.lifetime.start.p0i8(i64 404, i8* nonnull %5) #4
  call void @llvm.memset.p0i8.i64(i8* noundef nonnull align 16 dereferenceable(404) %5, i8 0, i64 404, i1 false)
  %6 = bitcast i32* %3 to i8*
  call void @llvm.lifetime.start.p0i8(i64 4, i8* nonnull %6) #4
  %7 = call i32 (i8*, ...) @__isoc99_scanf(i8* getelementptr inbounds ([3 x i8], [3 x i8]* @.str, i64 0, i64 0), i32* nonnull %3)
  %8 = load i32, i32* %3, align 4, !tbaa !5
  %9 = icmp sgt i32 %8, 0
  br i1 %9, label %101, label %123

10:                                               ; preds = %101
  %11 = icmp sgt i32 %106, 0
  br i1 %11, label %12, label %123

12:                                               ; preds = %10
  %13 = zext i32 %106 to i64
  %14 = icmp ult i32 %106, 8
  br i1 %14, label %98, label %15

15:                                               ; preds = %12
  %16 = add nsw i64 %13, -1
  %17 = add nsw i32 %106, -1
  %18 = trunc i64 %16 to i32
  %19 = icmp ult i32 %17, %18
  %20 = icmp ugt i64 %16, 4294967295
  %21 = or i1 %19, %20
  br i1 %21, label %98, label %22

22:                                               ; preds = %15
  %23 = and i64 %13, 4294967288
  %24 = and i64 %13, 7
  %25 = trunc i64 %23 to i32
  %26 = sub i32 %106, %25
  %27 = add nsw i64 %23, -8
  %28 = lshr exact i64 %27, 3
  %29 = add nuw nsw i64 %28, 1
  %30 = and i64 %29, 1
  %31 = icmp eq i64 %27, 0
  br i1 %31, label %75, label %32

32:                                               ; preds = %22
  %33 = and i64 %29, 4611686018427387902
  br label %34

34:                                               ; preds = %34, %32
  %35 = phi i64 [ 0, %32 ], [ %72, %34 ]
  %36 = phi i64 [ %33, %32 ], [ %73, %34 ]
  %37 = trunc i64 %35 to i32
  %38 = getelementptr inbounds [101 x i32], [101 x i32]* %1, i64 0, i64 %35
  %39 = bitcast i32* %38 to <4 x i32>*
  %40 = load <4 x i32>, <4 x i32>* %39, align 16, !tbaa !5
  %41 = getelementptr inbounds i32, i32* %38, i64 4
  %42 = bitcast i32* %41 to <4 x i32>*
  %43 = load <4 x i32>, <4 x i32>* %42, align 16, !tbaa !5
  %44 = xor i32 %37, -1
  %45 = add i32 %106, %44
  %46 = zext i32 %45 to i64
  %47 = getelementptr inbounds [101 x i32], [101 x i32]* %2, i64 0, i64 %46
  %48 = shufflevector <4 x i32> %40, <4 x i32> poison, <4 x i32> <i32 3, i32 2, i32 1, i32 0>
  %49 = getelementptr inbounds i32, i32* %47, i64 -3
  %50 = bitcast i32* %49 to <4 x i32>*
  store <4 x i32> %48, <4 x i32>* %50, align 4, !tbaa !5
  %51 = shufflevector <4 x i32> %43, <4 x i32> poison, <4 x i32> <i32 3, i32 2, i32 1, i32 0>
  %52 = getelementptr inbounds i32, i32* %47, i64 -7
  %53 = bitcast i32* %52 to <4 x i32>*
  store <4 x i32> %51, <4 x i32>* %53, align 4, !tbaa !5
  %54 = or i64 %35, 8
  %55 = trunc i64 %54 to i32
  %56 = getelementptr inbounds [101 x i32], [101 x i32]* %1, i64 0, i64 %54
  %57 = bitcast i32* %56 to <4 x i32>*
  %58 = load <4 x i32>, <4 x i32>* %57, align 16, !tbaa !5
  %59 = getelementptr inbounds i32, i32* %56, i64 4
  %60 = bitcast i32* %59 to <4 x i32>*
  %61 = load <4 x i32>, <4 x i32>* %60, align 16, !tbaa !5
  %62 = xor i32 %55, -1
  %63 = add i32 %106, %62
  %64 = zext i32 %63 to i64
  %65 = getelementptr inbounds [101 x i32], [101 x i32]* %2, i64 0, i64 %64
  %66 = shufflevector <4 x i32> %58, <4 x i32> poison, <4 x i32> <i32 3, i32 2, i32 1, i32 0>
  %67 = getelementptr inbounds i32, i32* %65, i64 -3
  %68 = bitcast i32* %67 to <4 x i32>*
  store <4 x i32> %66, <4 x i32>* %68, align 4, !tbaa !5
  %69 = shufflevector <4 x i32> %61, <4 x i32> poison, <4 x i32> <i32 3, i32 2, i32 1, i32 0>
  %70 = getelementptr inbounds i32, i32* %65, i64 -7
  %71 = bitcast i32* %70 to <4 x i32>*
  store <4 x i32> %69, <4 x i32>* %71, align 4, !tbaa !5
  %72 = add nuw i64 %35, 16
  %73 = add i64 %36, -2
  %74 = icmp eq i64 %73, 0
  br i1 %74, label %75, label %34, !llvm.loop !9

75:                                               ; preds = %34, %22
  %76 = phi i64 [ 0, %22 ], [ %72, %34 ]
  %77 = icmp eq i64 %30, 0
  br i1 %77, label %96, label %78

78:                                               ; preds = %75
  %79 = trunc i64 %76 to i32
  %80 = getelementptr inbounds [101 x i32], [101 x i32]* %1, i64 0, i64 %76
  %81 = bitcast i32* %80 to <4 x i32>*
  %82 = load <4 x i32>, <4 x i32>* %81, align 16, !tbaa !5
  %83 = getelementptr inbounds i32, i32* %80, i64 4
  %84 = bitcast i32* %83 to <4 x i32>*
  %85 = load <4 x i32>, <4 x i32>* %84, align 16, !tbaa !5
  %86 = xor i32 %79, -1
  %87 = add i32 %106, %86
  %88 = zext i32 %87 to i64
  %89 = getelementptr inbounds [101 x i32], [101 x i32]* %2, i64 0, i64 %88
  %90 = shufflevector <4 x i32> %82, <4 x i32> poison, <4 x i32> <i32 3, i32 2, i32 1, i32 0>
  %91 = getelementptr inbounds i32, i32* %89, i64 -3
  %92 = bitcast i32* %91 to <4 x i32>*
  store <4 x i32> %90, <4 x i32>* %92, align 4, !tbaa !5
  %93 = shufflevector <4 x i32> %85, <4 x i32> poison, <4 x i32> <i32 3, i32 2, i32 1, i32 0>
  %94 = getelementptr inbounds i32, i32* %89, i64 -7
  %95 = bitcast i32* %94 to <4 x i32>*
  store <4 x i32> %93, <4 x i32>* %95, align 4, !tbaa !5
  br label %96

96:                                               ; preds = %75, %78
  %97 = icmp eq i64 %23, %13
  br i1 %97, label %120, label %98

98:                                               ; preds = %15, %12, %96
  %99 = phi i64 [ %13, %15 ], [ %13, %12 ], [ %24, %96 ]
  %100 = phi i32 [ %106, %15 ], [ %106, %12 ], [ %26, %96 ]
  br label %109

101:                                              ; preds = %0, %101
  %102 = phi i64 [ %105, %101 ], [ 0, %0 ]
  %103 = getelementptr inbounds [101 x i32], [101 x i32]* %1, i64 0, i64 %102
  %104 = call i32 (i8*, ...) @__isoc99_scanf(i8* getelementptr inbounds ([3 x i8], [3 x i8]* @.str, i64 0, i64 0), i32* nonnull %103)
  %105 = add nuw nsw i64 %102, 1
  %106 = load i32, i32* %3, align 4, !tbaa !5
  %107 = sext i32 %106 to i64
  %108 = icmp slt i64 %105, %107
  br i1 %108, label %101, label %10, !llvm.loop !12

109:                                              ; preds = %98, %109
  %110 = phi i64 [ %119, %109 ], [ %99, %98 ]
  %111 = phi i32 [ %115, %109 ], [ %100, %98 ]
  %112 = sub nuw nsw i64 %13, %110
  %113 = getelementptr inbounds [101 x i32], [101 x i32]* %1, i64 0, i64 %112
  %114 = load i32, i32* %113, align 4, !tbaa !5
  %115 = add nsw i32 %111, -1
  %116 = zext i32 %115 to i64
  %117 = getelementptr inbounds [101 x i32], [101 x i32]* %2, i64 0, i64 %116
  store i32 %114, i32* %117, align 4, !tbaa !5
  %118 = icmp sgt i64 %110, 1
  %119 = add nsw i64 %110, -1
  br i1 %118, label %109, label %120, !llvm.loop !13

120:                                              ; preds = %109, %96
  %121 = getelementptr inbounds [101 x i32], [101 x i32]* %2, i64 0, i64 0
  %122 = load i32, i32* %121, align 16, !tbaa !5
  br label %123

123:                                              ; preds = %0, %120, %10
  %124 = phi i32 [ %122, %120 ], [ 0, %10 ], [ 0, %0 ]
  %125 = call i32 (i8*, ...) @printf(i8* nonnull dereferenceable(1) getelementptr inbounds ([3 x i8], [3 x i8]* @.str, i64 0, i64 0), i32 %124)
  %126 = load i32, i32* %3, align 4, !tbaa !5
  %127 = icmp sgt i32 %126, 1
  br i1 %127, label %128, label %137

128:                                              ; preds = %123, %128
  %129 = phi i64 [ %133, %128 ], [ 1, %123 ]
  %130 = getelementptr inbounds [101 x i32], [101 x i32]* %2, i64 0, i64 %129
  %131 = load i32, i32* %130, align 4, !tbaa !5
  %132 = call i32 (i8*, ...) @printf(i8* nonnull dereferenceable(1) getelementptr inbounds ([4 x i8], [4 x i8]* @.str.1, i64 0, i64 0), i32 %131)
  %133 = add nuw nsw i64 %129, 1
  %134 = load i32, i32* %3, align 4, !tbaa !5
  %135 = sext i32 %134 to i64
  %136 = icmp slt i64 %133, %135
  br i1 %136, label %128, label %137, !llvm.loop !14

137:                                              ; preds = %128, %123
  call void @llvm.lifetime.end.p0i8(i64 4, i8* nonnull %6) #4
  call void @llvm.lifetime.end.p0i8(i64 404, i8* nonnull %5) #4
  call void @llvm.lifetime.end.p0i8(i64 404, i8* nonnull %4) #4
  ret i32 0
}

; Function Attrs: argmemonly mustprogress nofree nosync nounwind willreturn
declare void @llvm.lifetime.start.p0i8(i64 immarg, i8* nocapture) #1

; Function Attrs: argmemonly mustprogress nofree nounwind willreturn writeonly
declare void @llvm.memset.p0i8.i64(i8* nocapture writeonly, i8, i64, i1 immarg) #2

; Function Attrs: nofree nounwind
declare noundef i32 @__isoc99_scanf(i8* nocapture noundef readonly, ...) local_unnamed_addr #3

; Function Attrs: nofree nounwind
declare noundef i32 @printf(i8* nocapture noundef readonly, ...) local_unnamed_addr #3

; Function Attrs: argmemonly mustprogress nofree nosync nounwind willreturn
declare void @llvm.lifetime.end.p0i8(i64 immarg, i8* nocapture) #1


!llvm.module.flags = !{!0, !1, !2, !3}
!llvm.ident = !{!4}

!0 = !{i32 1, !"wchar_size", i32 4}
!1 = !{i32 7, !"PIC Level", i32 2}
!2 = !{i32 7, !"PIE Level", i32 2}
!3 = !{i32 7, !"uwtable", i32 1}
!4 = !{!"clang version 13.0.0"}
!5 = !{!6, !6, i64 0}
!6 = !{!"int", !7, i64 0}
!7 = !{!"omnipotent char", !8, i64 0}
!8 = !{!"Simple C/C++ TBAA"}
!9 = distinct !{!9, !10, !11}
!10 = !{!"llvm.loop.mustprogress"}
!11 = !{!"llvm.loop.isvectorized", i32 1}
!12 = distinct !{!12, !10}
!13 = distinct !{!13, !10, !11}
!14 = distinct !{!14, !10}
